; ModuleID = '58/919.cpp'
source_filename = "58/919.cpp"
target datalayout = "e-m:e-p270:32:32-p271:32:32-p272:64:64-i64:64-f80:128-n8:16:32:64-S128"
target triple = "x86_64-pc-linux-gnu"

%"class.std::ios_base::Init" = type { i8 }
%"class.std::basic_istream" = type { i32 (...)**, i64, %"class.std::basic_ios" }
%"class.std::basic_ios" = type { %"class.std::ios_base", %"class.std::basic_ostream"*, i8, i8, %"class.std::basic_streambuf"*, %"class.std::ctype"*, %"class.std::num_put"*, %"class.std::num_get"* }
%"class.std::ios_base" = type { i32 (...)**, i64, i64, i32, i32, i32, %"struct.std::ios_base::_Callback_list"*, %"struct.std::ios_base::_Words", [8 x %"struct.std::ios_base::_Words"], i32, %"struct.std::ios_base::_Words"*, %"class.std::locale" }
%"struct.std::ios_base::_Callback_list" = type { %"struct.std::ios_base::_Callback_list"*, void (i32, %"class.std::ios_base"*, i32)*, i32, i32 }
%"struct.std::ios_base::_Words" = type { i8*, i64 }
%"class.std::locale" = type { %"class.std::locale::_Impl"* }
%"class.std::locale::_Impl" = type { i32, %"class.std::locale::facet"**, i64, %"class.std::locale::facet"**, i8** }
%"class.std::locale::facet" = type <{ i32 (...)**, i32, [4 x i8] }>
%"class.std::basic_ostream" = type { i32 (...)**, %"class.std::basic_ios" }
%"class.std::basic_streambuf" = type { i32 (...)**, i8*, i8*, i8*, i8*, i8*, i8*, %"class.std::locale" }
%"class.std::ctype" = type <{ %"class.std::locale::facet.base", [4 x i8], %struct.__locale_struct*, i8, [7 x i8], i32*, i32*, i16*, i8, [256 x i8], [256 x i8], i8, [6 x i8] }>
%"class.std::locale::facet.base" = type <{ i32 (...)**, i32 }>
%struct.__locale_struct = type { [13 x %struct.__locale_data*], i16*, i32*, i32*, [13 x i8*] }
%struct.__locale_data = type opaque
%"class.std::num_put" = type { %"class.std::locale::facet.base", [4 x i8] }
%"class.std::num_get" = type { %"class.std::locale::facet.base", [4 x i8] }

@_ZStL8__ioinit = internal global %"class.std::ios_base::Init" zeroinitializer, align 1
@__dso_handle = external hidden global i8
@s = dso_local global [81 x i8] zeroinitializer, align 16
@a = dso_local global i32 0, align 4
@_ZSt3cin = external dso_local global %"class.std::basic_istream", align 8
@_ZSt4cout = external dso_local global %"class.std::basic_ostream", align 8
@llvm.global_ctors = appending global [1 x { i32, void ()*, i8* }] [{ i32, void ()*, i8* } { i32 65535, void ()* @_GLOBAL__sub_I_919.cpp, i8* null }]

; Function Attrs: noinline uwtable
define internal void @__cxx_global_var_init() #0 section ".text.startup" {
  call void @_ZNSt8ios_base4InitC1Ev(%"class.std::ios_base::Init"* @_ZStL8__ioinit)
  %1 = call i32 @__cxa_atexit(void (i8*)* bitcast (void (%"class.std::ios_base::Init"*)* @_ZNSt8ios_base4InitD1Ev to void (i8*)*), i8* getelementptr inbounds (%"class.std::ios_base::Init", %"class.std::ios_base::Init"* @_ZStL8__ioinit, i32 0, i32 0), i8* @__dso_handle) #3
  ret void
}

declare dso_local void @_ZNSt8ios_base4InitC1Ev(%"class.std::ios_base::Init"*) unnamed_addr #1

; Function Attrs: nounwind
declare dso_local void @_ZNSt8ios_base4InitD1Ev(%"class.std::ios_base::Init"*) unnamed_addr #2

; Function Attrs: nounwind
declare dso_local i32 @__cxa_atexit(void (i8*)*, i8*, i8*) #3

; Function Attrs: noinline norecurse uwtable
define dso_local i32 @main() #4 {
  %1 = alloca i32, align 4
  %2 = alloca i32, align 4
  %3 = alloca i32, align 4
  %4 = alloca i32, align 4
  %5 = alloca i32, align 4
  %6 = alloca i32, align 4
  %7 = alloca i32, align 4
  store i32 0, i32* %1, align 4
  %8 = call dereferenceable(280) %"class.std::basic_istream"* @_ZNSirsERi(%"class.std::basic_istream"* @_ZSt3cin, i32* dereferenceable(4) %5)
  %9 = call i32 @getchar()
  store i32 0, i32* %3, align 4
  br label %10

10:                                               ; preds = %111, %0
  %11 = load i32, i32* %3, align 4
  %12 = load i32, i32* %5, align 4
  %13 = icmp slt i32 %11, %12
  br i1 %13, label %14, label %114

14:                                               ; preds = %10
  %15 = call dereferenceable(280) %"class.std::basic_istream"* @_ZNSi7getlineEPcl(%"class.std::basic_istream"* @_ZSt3cin, i8* getelementptr inbounds ([81 x i8], [81 x i8]* @s, i64 0, i64 0), i64 81)
  %16 = call i64 @strlen(i8* getelementptr inbounds ([81 x i8], [81 x i8]* @s, i64 0, i64 0)) #6
  %17 = trunc i64 %16 to i32
  store i32 %17, i32* %2, align 4
  store i32 0, i32* %6, align 4
  store i32 0, i32* %7, align 4
  %18 = load i8, i8* getelementptr inbounds ([81 x i8], [81 x i8]* @s, i64 0, i64 0), align 16
  %19 = sext i8 %18 to i32
  %20 = icmp eq i32 %19, 95
  br i1 %20, label %37, label %21

21:                                               ; preds = %14
  %22 = load i8, i8* getelementptr inbounds ([81 x i8], [81 x i8]* @s, i64 0, i64 0), align 16
  %23 = sext i8 %22 to i32
  %24 = icmp sge i32 %23, 97
  br i1 %24, label %25, label %29

25:                                               ; preds = %21
  %26 = load i8, i8* getelementptr inbounds ([81 x i8], [81 x i8]* @s, i64 0, i64 0), align 16
  %27 = sext i8 %26 to i32
  %28 = icmp sle i32 %27, 122
  br i1 %28, label %37, label %29

29:                                               ; preds = %25, %21
  %30 = load i8, i8* getelementptr inbounds ([81 x i8], [81 x i8]* @s, i64 0, i64 0), align 16
  %31 = sext i8 %30 to i32
  %32 = icmp sge i32 %31, 65
  br i1 %32, label %33, label %38

33:                                               ; preds = %29
  %34 = load i8, i8* getelementptr inbounds ([81 x i8], [81 x i8]* @s, i64 0, i64 0), align 16
  %35 = sext i8 %34 to i32
  %36 = icmp sle i32 %35, 90
  br i1 %36, label %37, label %38

37:                                               ; preds = %33, %25, %14
  store i32 1, i32* %6, align 4
  br label %39

38:                                               ; preds = %33, %29
  store i32 0, i32* %6, align 4
  br label %39

39:                                               ; preds = %38, %37
  store i32 0, i32* %4, align 4
  br label %40

40:                                               ; preds = %96, %39
  %41 = load i32, i32* %4, align 4
  %42 = load i32, i32* %2, align 4
  %43 = icmp slt i32 %41, %42
  br i1 %43, label %44, label %99

44:                                               ; preds = %40
  %45 = load i32, i32* %4, align 4
  %46 = sext i32 %45 to i64
  %47 = getelementptr inbounds [81 x i8], [81 x i8]* @s, i64 0, i64 %46
  %48 = load i8, i8* %47, align 1
  %49 = sext i8 %48 to i32
  %50 = icmp eq i32 %49, 95
  br i1 %50, label %93, label %51

51:                                               ; preds = %44
  %52 = load i32, i32* %4, align 4
  %53 = sext i32 %52 to i64
  %54 = getelementptr inbounds [81 x i8], [81 x i8]* @s, i64 0, i64 %53
  %55 = load i8, i8* %54, align 1
  %56 = sext i8 %55 to i32
  %57 = icmp sge i32 %56, 48
  br i1 %57, label %58, label %65

58:                                               ; preds = %51
  %59 = load i32, i32* %4, align 4
  %60 = sext i32 %59 to i64
  %61 = getelementptr inbounds [81 x i8], [81 x i8]* @s, i64 0, i64 %60
  %62 = load i8, i8* %61, align 1
  %63 = sext i8 %62 to i32
  %64 = icmp sle i32 %63, 57
  br i1 %64, label %93, label %65

65:                                               ; preds = %58, %51
  %66 = load i32, i32* %4, align 4
  %67 = sext i32 %66 to i64
  %68 = getelementptr inbounds [81 x i8], [81 x i8]* @s, i64 0, i64 %67
  %69 = load i8, i8* %68, align 1
  %70 = sext i8 %69 to i32
  %71 = icmp sge i32 %70, 97
  br i1 %71, label %72, label %79

72:                                               ; preds = %65
  %73 = load i32, i32* %4, align 4
  %74 = sext i32 %73 to i64
  %75 = getelementptr inbounds [81 x i8], [81 x i8]* @s, i64 0, i64 %74
  %76 = load i8, i8* %75, align 1
  %77 = sext i8 %76 to i32
  %78 = icmp sle i32 %77, 122
  br i1 %78, label %93, label %79

79:                                               ; preds = %72, %65
  %80 = load i32, i32* %4, align 4
  %81 = sext i32 %80 to i64
  %82 = getelementptr inbounds [81 x i8], [81 x i8]* @s, i64 0, i64 %81
  %83 = load i8, i8* %82, align 1
  %84 = sext i8 %83 to i32
  %85 = icmp sge i32 %84, 65
  br i1 %85, label %86, label %94

86:                                               ; preds = %79
  %87 = load i32, i32* %4, align 4
  %88 = sext i32 %87 to i64
  %89 = getelementptr inbounds [81 x i8], [81 x i8]* @s, i64 0, i64 %88
  %90 = load i8, i8* %89, align 1
  %91 = sext i8 %90 to i32
  %92 = icmp sle i32 %91, 90
  br i1 %92, label %93, label %94

93:                                               ; preds = %86, %72, %58, %44
  store i32 1, i32* %7, align 4
  br label %95

94:                                               ; preds = %86, %79
  store i32 0, i32* %7, align 4
  br label %99

95:                                               ; preds = %93
  br label %96

96:                                               ; preds = %95
  %97 = load i32, i32* %4, align 4
  %98 = add nsw i32 %97, 1
  store i32 %98, i32* %4, align 4
  br label %40

99:                                               ; preds = %94, %40
  %100 = load i32, i32* %7, align 4
  %101 = icmp ne i32 %100, 0
  br i1 %101, label %102, label %106

102:                                              ; preds = %99
  %103 = load i32, i32* %6, align 4
  %104 = icmp eq i32 %103, 1
  br i1 %104, label %105, label %106

105:                                              ; preds = %102
  store i32 1, i32* @a, align 4
  br label %107

106:                                              ; preds = %102, %99
  store i32 0, i32* @a, align 4
  br label %107

107:                                              ; preds = %106, %105
  %108 = load i32, i32* @a, align 4
  %109 = call dereferenceable(272) %"class.std::basic_ostream"* @_ZNSolsEi(%"class.std::basic_ostream"* @_ZSt4cout, i32 %108)
  %110 = call dereferenceable(272) %"class.std::basic_ostream"* @_ZStlsISt11char_traitsIcEERSt13basic_ostreamIcT_ES5_c(%"class.std::basic_ostream"* dereferenceable(272) %109, i8 signext 10)
  br label %111

111:                                              ; preds = %107
  %112 = load i32, i32* %3, align 4
  %113 = add nsw i32 %112, 1
  store i32 %113, i32* %3, align 4
  br label %10

114:                                              ; preds = %10
  ret i32 0
}

declare dso_local dereferenceable(280) %"class.std::basic_istream"* @_ZNSirsERi(%"class.std::basic_istream"*, i32* dereferenceable(4)) #1

declare dso_local i32 @getchar() #1

declare dso_local dereferenceable(280) %"class.std::basic_istream"* @_ZNSi7getlineEPcl(%"class.std::basic_istream"*, i8*, i64) #1

; Function Attrs: nounwind readonly
declare dso_local i64 @strlen(i8*) #5

declare dso_local dereferenceable(272) %"class.std::basic_ostream"* @_ZStlsISt11char_traitsIcEERSt13basic_ostreamIcT_ES5_c(%"class.std::basic_ostream"* dereferenceable(272), i8 signext) #1

declare dso_local dereferenceable(272) %"class.std::basic_ostream"* @_ZNSolsEi(%"class.std::basic_ostream"*, i32) #1

; Function Attrs: noinline uwtable
define internal void @_GLOBAL__sub_I_919.cpp() #0 section ".text.startup" {
  call void @__cxx_global_var_init()
  ret void
}


!llvm.module.flags = !{!0}
!llvm.ident = !{!1}

!0 = !{i32 1, !"wchar_size", i32 4}
!1 = !{!"clang version 10.0.0-4ubuntu1 "}
